target datalayout = "e-m:e-p270:32:32-p271:32:32-p272:64:64-i64:64-i128:128-f80:128-n8:16:32:64-S128"
target triple = "x86_64-pc-linux-gnu"

%struct.rb_data_type_struct = type { ptr, %struct.anon, ptr, ptr, i64 }
%struct.anon = type { ptr, ptr, ptr, ptr, [1 x ptr] }
%struct.rb_digest_metadata_t = type { i32, i64, i64, i64, ptr, ptr, ptr }

@rb_eRuntimeError = external global i64, align 8
@digest_type = internal constant %struct.rb_data_type_struct { ptr @.str.3, %struct.anon { ptr null, ptr inttoptr (i64 -1 to ptr), ptr null, ptr null, [1 x ptr] zeroinitializer }, ptr null, ptr null, i64 33 }, align 8
@.str.37 = private unnamed_addr constant [30 x i8] c"Digest initialization failed.\00", align 1

; Function Attrs: inlinehint nounwind sspstrong uwtable
define internal void @algo_init(ptr noundef %0, ptr noundef %1) #2 {
  %3 = alloca ptr, align 8
  %4 = alloca ptr, align 8
  store ptr %0, ptr %3, align 8, !tbaa !6
  store ptr %1, ptr %4, align 8, !tbaa !6
  %5 = load ptr, ptr %3, align 8, !tbaa !6
  %6 = getelementptr inbounds nuw %struct.rb_digest_metadata_t, ptr %5, i32 0, i32 4
  %7 = load ptr, ptr %6, align 8, !tbaa !48
  %8 = load ptr, ptr %4, align 8, !tbaa !6
  %9 = call i32 %7(ptr noundef %8)
  %10 = icmp ne i32 %9, 1
  br i1 %10, label %11, label %13

11:                                               ; preds = %2
  %12 = load i64, ptr @rb_eRuntimeError, align 8, !tbaa !10
  call void (i64, ptr, ...) @rb_raise(i64 noundef %12, ptr noundef @.str.37) #20
  unreachable

13:                                               ; preds = %2
  ret void
}

; Function Attrs: nounwind sspstrong uwtable
define internal ptr @get_digest_obj_metadata(i64 noundef %0) #0 {
  %2 = alloca i64, align 8
  store i64 %0, ptr %2, align 8, !tbaa !10
  %3 = load i64, ptr %2, align 8, !tbaa !10
  %4 = call i64 @rb_obj_class(i64 noundef %3)
  %5 = call ptr @get_digest_base_metadata(i64 noundef %4)
  ret ptr %5
}

; Function Attrs: nounwind sspstrong uwtable
define internal i64 @rb_digest_base_reset(i64 noundef %0) #0 {
  %2 = alloca i64, align 8
  %3 = alloca ptr, align 8
  %4 = alloca ptr, align 8
  store i64 %0, ptr %2, align 8, !tbaa !10
  call void @llvm.lifetime.start.p0(i64 8, ptr %3) #21
  call void @llvm.lifetime.start.p0(i64 8, ptr %4) #21
  %5 = load i64, ptr %2, align 8, !tbaa !10
  %6 = call ptr @get_digest_obj_metadata(i64 noundef %5)
  store ptr %6, ptr %3, align 8, !tbaa !6
  %7 = load i64, ptr %2, align 8, !tbaa !10
  %8 = call ptr @rb_check_typeddata(i64 noundef %7, ptr noundef @digest_type)
  store ptr %8, ptr %4, align 8, !tbaa !6
  %9 = load ptr, ptr %3, align 8, !tbaa !6
  %10 = load ptr, ptr %4, align 8, !tbaa !6
  call void @algo_init(ptr noundef %9, ptr noundef %10)
  %11 = load i64, ptr %2, align 8, !tbaa !10
  call void @llvm.lifetime.end.p0(i64 8, ptr %4) #21
  call void @llvm.lifetime.end.p0(i64 8, ptr %3) #21
  ret i64 %11
}