; Function Attrs: nounwind sspstrong uwtable
define internal noundef i64 @rb_digest_base_reset(i64 noundef returned %0) #0 {
  %2 = tail call i64 @rb_obj_class(i64 noundef %0) #9
  %3 = tail call fastcc nonnull ptr @get_digest_base_metadata(i64 noundef %2)
  %4 = tail call ptr @rb_check_typeddata(i64 noundef %0, ptr noundef nonnull @digest_type) #9
  %5 = getelementptr i8, ptr %3, i64 32
  %.val = load ptr, ptr %5, align 8, !tbaa !58
  %6 = tail call i32 %.val(ptr noundef %4) #9
  %.not.i = icmp eq i32 %6, 1
  br i1 %.not.i, label %algo_init.exit, label %7

7:                                                ; preds = %1
  %8 = load i64, ptr @rb_eRuntimeError, align 8, !tbaa !6
  tail call void (i64, ptr, ...) @rb_raise(i64 noundef %8, ptr noundef nonnull @.str.37) #10
  unreachable

algo_init.exit:                                   ; preds = %1
  ret i64 %0
}